; Function Attrs: mustprogress uwtable
define hidden noundef zeroext i1 @_ZNK7datalog11udoc_plugin14is_finite_sortEP4sort(ptr noundef nonnull align 8 dereferenceable(129) %0, ptr noundef %1) local_unnamed_addr #3 align 2 {
  %3 = getelementptr inbounds nuw i8, ptr %0, i64 48
  %4 = tail call noundef zeroext i1 @_ZNK14bv_recognizers10is_bv_sortEPK4sort(ptr noundef nonnull align 4 dereferenceable(4) %3, ptr noundef %1)
  br i1 %4, label %_ZNK7datalog12dl_decl_util14is_finite_sortEP4sort.exit, label %5

5:                                                ; preds = %2
  %6 = getelementptr inbounds nuw i8, ptr %0, i64 72
  %7 = tail call noundef i32 @_ZNK7datalog12dl_decl_util13get_family_idEv(ptr noundef nonnull align 8 dereferenceable(28) %6)
  %8 = getelementptr inbounds nuw i8, ptr %1, i64 24
  %9 = load ptr, ptr %8, align 8, !tbaa !54
  %10 = icmp eq ptr %9, null
  br i1 %10, label %_ZNK7datalog12dl_decl_util14is_finite_sortEP4sort.exit, label %_ZNK4decl13get_family_idEv.exit.thread.i.i.i

_ZNK4decl13get_family_idEv.exit.thread.i.i.i:     ; preds = %5
  %11 = load i32, ptr %9, align 8, !tbaa !430
  %12 = icmp eq i32 %11, %7
  br i1 %12, label %13, label %_ZNK7datalog12dl_decl_util14is_finite_sortEP4sort.exit

13:                                               ; preds = %_ZNK4decl13get_family_idEv.exit.thread.i.i.i
  %14 = getelementptr inbounds nuw i8, ptr %9, i64 4
  %15 = load i32, ptr %14, align 4, !tbaa !432
  %16 = icmp eq i32 %15, 1
  br label %_ZNK7datalog12dl_decl_util14is_finite_sortEP4sort.exit

_ZNK7datalog12dl_decl_util14is_finite_sortEP4sort.exit: ; preds = %13, %_ZNK4decl13get_family_idEv.exit.thread.i.i.i, %5, %2
  %17 = phi i1 [ true, %2 ], [ false, %_ZNK4decl13get_family_idEv.exit.thread.i.i.i ], [ %16, %13 ], [ false, %5 ]
  ret i1 %17
}